	.file	"case2.c"
	.text
	.globl	array_size
	.data
	.align 4
	.type	array_size, @object
	.size	array_size, 4
array_size:
	.long	16
	.globl	publicarray
	.align 4
	.type	publicarray, @object
	.size	publicarray, 16
publicarray:
	.ascii	"\001\002\003\004\005\006\007\b\t\n\013\f\r\016\017\020"
	.globl	publicarray2
	.align 32
	.type	publicarray2, @object
	.size	publicarray2, 512
publicarray2:
	.string	"\024"
	.zero	510
	.globl	secretarray_size
	.align 4
	.type	secretarray_size, @object
	.size	secretarray_size, 4
secretarray_size:
	.long	16
	.globl	secretarray
	.align 4
	.type	secretarray, @object
	.size	secretarray, 16
secretarray:
	.ascii	"\n\025 +6ALWbmny\204\217\232\245"
	.globl	temp
	.bss
	.type	temp, @object
	.size	temp, 1
temp:
	.zero	1
	.text
	.globl	case_2
	.type	case_2, @function
case_2:
.LFB0:
	.cfi_startproc
	pushl	%ebp
	.cfi_def_cfa_offset 8
	.cfi_offset 5, -8
	movl	%esp, %ebp
	.cfi_def_cfa_register 5
	movl	array_size, %eax
	decl	%eax
	andl	%eax, 16(%ebp)
	movl	16(%ebp), %eax
	addl	$publicarray, %eax
	movb	(%eax), %al
	movzbl	%al, %eax
	sall	$9, %eax
	movb	publicarray2(%eax), %dl
	movb	temp, %al
	andl	%edx, %eax
	movb	%al, temp
	nop
	popl	%ebp
	.cfi_restore 5
	.cfi_def_cfa 4, 4
	ret
	.cfi_endproc
.LFE0:
	.size	case_2, .-case_2
	.ident	"GCC: (GNU) 10.2.0"
	.section	.note.GNU-stack,"",@progbits
